target datalayout = "e-m:e-p270:32:32-p271:32:32-p272:64:64-i64:64-i128:128-f80:128-n8:16:32:64-S128"
target triple = "x86_64-pc-linux-gnu"

%struct.PQExpBufferData = type { ptr, i64, i64 }

@.str.445 = private unnamed_addr constant [9 x i8] c"    \22%s\22\00", align 1
@.str.828 = private unnamed_addr constant [6 x i8] c" (%s)\00", align 1
@.str.829 = private unnamed_addr constant [10 x i8] c" WHERE %s\00", align 1
@.str.915 = private unnamed_addr constant [12 x i8] c"    \22%s.%s\22\00", align 1

; Function Attrs: nounwind uwtable
define internal zeroext i1 @addFooterToPublicationDesc(ptr noundef %0, ptr noundef %1, i1 noundef zeroext %2, ptr noundef %3) #0 {
  %5 = alloca i1, align 1
  %6 = alloca ptr, align 8
  %7 = alloca ptr, align 8
  %8 = alloca i8, align 1
  %9 = alloca ptr, align 8
  %10 = alloca ptr, align 8
  %11 = alloca i32, align 4
  %12 = alloca i32, align 4
  %13 = alloca i32, align 4
  store ptr %0, ptr %6, align 8
  store ptr %1, ptr %7, align 8
  %14 = zext i1 %2 to i8
  store i8 %14, ptr %8, align 1
  store ptr %3, ptr %9, align 8
  call void @llvm.lifetime.start.p0(i64 8, ptr %10) #8
  call void @llvm.lifetime.start.p0(i64 4, ptr %11) #8
  store i32 0, ptr %11, align 4
  call void @llvm.lifetime.start.p0(i64 4, ptr %12) #8
  store i32 0, ptr %12, align 4
  %15 = load ptr, ptr %6, align 8
  %16 = getelementptr inbounds nuw %struct.PQExpBufferData, ptr %15, i32 0, i32 0
  %17 = load ptr, ptr %16, align 8
  %18 = call ptr @PSQLexec(ptr noundef %17)
  store ptr %18, ptr %10, align 8
  %19 = load ptr, ptr %10, align 8
  %20 = icmp ne ptr %19, null
  br i1 %20, label %22, label %21

21:                                               ; preds = %4
  store i1 false, ptr %5, align 1
  store i32 1, ptr %13, align 4
  br label %82

22:                                               ; preds = %4
  %23 = load ptr, ptr %10, align 8
  %24 = call i32 @PQntuples(ptr noundef %23)
  store i32 %24, ptr %11, align 4
  br label %25

25:                                               ; preds = %22
  %26 = load i32, ptr %11, align 4
  %27 = icmp sgt i32 %26, 0
  br i1 %27, label %28, label %31

28:                                               ; preds = %25
  %29 = load ptr, ptr %9, align 8
  %30 = load ptr, ptr %7, align 8
  call void @printTableAddFooter(ptr noundef %29, ptr noundef %30)
  br label %31

31:                                               ; preds = %28, %25
  store i32 0, ptr %12, align 4
  br label %32

32:                                               ; preds = %77, %31
  %33 = load i32, ptr %12, align 4
  %34 = load i32, ptr %11, align 4
  %35 = icmp slt i32 %33, %34
  br i1 %35, label %36, label %80

36:                                               ; preds = %32
  %37 = load i8, ptr %8, align 1, !range !4, !noundef !5
  %38 = trunc i8 %37 to i1
  br i1 %38, label %39, label %44

39:                                               ; preds = %36
  %40 = load ptr, ptr %6, align 8
  %41 = load ptr, ptr %10, align 8
  %42 = load i32, ptr %12, align 4
  %43 = call ptr @PQgetvalue(ptr noundef %41, i32 noundef %42, i32 noundef 0)
  call void (ptr, ptr, ...) @printfPQExpBuffer(ptr noundef %40, ptr noundef @.str.445, ptr noundef %43)
  br label %72

44:                                               ; preds = %36
  %45 = load ptr, ptr %6, align 8
  %46 = load ptr, ptr %10, align 8
  %47 = load i32, ptr %12, align 4
  %48 = call ptr @PQgetvalue(ptr noundef %46, i32 noundef %47, i32 noundef 0)
  %49 = load ptr, ptr %10, align 8
  %50 = load i32, ptr %12, align 4
  %51 = call ptr @PQgetvalue(ptr noundef %49, i32 noundef %50, i32 noundef 1)
  call void (ptr, ptr, ...) @printfPQExpBuffer(ptr noundef %45, ptr noundef @.str.915, ptr noundef %48, ptr noundef %51)
  %52 = load ptr, ptr %10, align 8
  %53 = load i32, ptr %12, align 4
  %54 = call i32 @PQgetisnull(ptr noundef %52, i32 noundef %53, i32 noundef 3)
  %55 = icmp ne i32 %54, 0
  br i1 %55, label %61, label %56

56:                                               ; preds = %44
  %57 = load ptr, ptr %6, align 8
  %58 = load ptr, ptr %10, align 8
  %59 = load i32, ptr %12, align 4
  %60 = call ptr @PQgetvalue(ptr noundef %58, i32 noundef %59, i32 noundef 3)
  call void (ptr, ptr, ...) @appendPQExpBuffer(ptr noundef %57, ptr noundef @.str.828, ptr noundef %60)
  br label %61

61:                                               ; preds = %56, %44
  %62 = load ptr, ptr %10, align 8
  %63 = load i32, ptr %12, align 4
  %64 = call i32 @PQgetisnull(ptr noundef %62, i32 noundef %63, i32 noundef 2)
  %65 = icmp ne i32 %64, 0
  br i1 %65, label %71, label %66

66:                                               ; preds = %61
  %67 = load ptr, ptr %6, align 8
  %68 = load ptr, ptr %10, align 8
  %69 = load i32, ptr %12, align 4
  %70 = call ptr @PQgetvalue(ptr noundef %68, i32 noundef %69, i32 noundef 2)
  call void (ptr, ptr, ...) @appendPQExpBuffer(ptr noundef %67, ptr noundef @.str.829, ptr noundef %70)
  br label %71

71:                                               ; preds = %66, %61
  br label %72

72:                                               ; preds = %71, %39
  %73 = load ptr, ptr %9, align 8
  %74 = load ptr, ptr %6, align 8
  %75 = getelementptr inbounds nuw %struct.PQExpBufferData, ptr %74, i32 0, i32 0
  %76 = load ptr, ptr %75, align 8
  call void @printTableAddFooter(ptr noundef %73, ptr noundef %76)
  br label %77

77:                                               ; preds = %72
  %78 = load i32, ptr %12, align 4
  %79 = add i32 %78, 1
  store i32 %79, ptr %12, align 4
  br label %32, !llvm.loop !38

80:                                               ; preds = %32
  %81 = load ptr, ptr %10, align 8
  call void @PQclear(ptr noundef %81)
  store i1 true, ptr %5, align 1
  store i32 1, ptr %13, align 4
  br label %82

82:                                               ; preds = %80, %21
  call void @llvm.lifetime.end.p0(i64 4, ptr %12) #8
  call void @llvm.lifetime.end.p0(i64 4, ptr %11) #8
  call void @llvm.lifetime.end.p0(i64 8, ptr %10) #8
  %83 = load i1, ptr %5, align 1
  ret i1 %83
}