; Function Attrs: nounwind uwtable
define internal fastcc noundef zeroext i1 @addFooterToPublicationDesc(ptr noundef nonnull %0, ptr noundef %1, i1 noundef zeroext %2, ptr noundef nonnull %3) unnamed_addr #0 {
  %5 = load ptr, ptr %0, align 8
  %6 = tail call ptr @PSQLexec(ptr noundef %5) #8
  %.not = icmp ne ptr %6, null
  br i1 %.not, label %7, label %25

7:                                                ; preds = %4
  %8 = tail call i32 @PQntuples(ptr noundef nonnull %6) #8
  %9 = icmp sgt i32 %8, 0
  br i1 %9, label %.lr.ph, label %._crit_edge

.lr.ph:                                           ; preds = %7
  tail call void @printTableAddFooter(ptr noundef nonnull %3, ptr noundef %1) #8
  br i1 %2, label %.lr.ph.split.us, label %.lr.ph.split

.lr.ph.split.us:                                  ; preds = %.lr.ph, %.lr.ph.split.us
  %.035.us = phi i32 [ %12, %.lr.ph.split.us ], [ 0, %.lr.ph ]
  %10 = tail call ptr @PQgetvalue(ptr noundef nonnull %6, i32 noundef %.035.us, i32 noundef 0) #8
  tail call void (ptr, ptr, ...) @printfPQExpBuffer(ptr noundef nonnull %0, ptr noundef nonnull @.str.445, ptr noundef %10) #8
  %11 = load ptr, ptr %0, align 8
  tail call void @printTableAddFooter(ptr noundef nonnull %3, ptr noundef %11) #8
  %12 = add nuw nsw i32 %.035.us, 1
  %exitcond37.not = icmp eq i32 %12, %8
  br i1 %exitcond37.not, label %._crit_edge, label %.lr.ph.split.us, !llvm.loop !38

.lr.ph.split:                                     ; preds = %.lr.ph, %22
  %.035 = phi i32 [ %24, %22 ], [ 0, %.lr.ph ]
  %13 = tail call ptr @PQgetvalue(ptr noundef nonnull %6, i32 noundef %.035, i32 noundef 0) #8
  %14 = tail call ptr @PQgetvalue(ptr noundef nonnull %6, i32 noundef %.035, i32 noundef 1) #8
  tail call void (ptr, ptr, ...) @printfPQExpBuffer(ptr noundef nonnull %0, ptr noundef nonnull @.str.915, ptr noundef %13, ptr noundef %14) #8
  %15 = tail call i32 @PQgetisnull(ptr noundef nonnull %6, i32 noundef %.035, i32 noundef 3) #8
  %.not33 = icmp eq i32 %15, 0
  br i1 %.not33, label %16, label %18

16:                                               ; preds = %.lr.ph.split
  %17 = tail call ptr @PQgetvalue(ptr noundef nonnull %6, i32 noundef %.035, i32 noundef 3) #8
  tail call void (ptr, ptr, ...) @appendPQExpBuffer(ptr noundef nonnull %0, ptr noundef nonnull @.str.828, ptr noundef %17) #8
  br label %18

18:                                               ; preds = %16, %.lr.ph.split
  %19 = tail call i32 @PQgetisnull(ptr noundef nonnull %6, i32 noundef %.035, i32 noundef 2) #8
  %.not34 = icmp eq i32 %19, 0
  br i1 %.not34, label %20, label %22

20:                                               ; preds = %18
  %21 = tail call ptr @PQgetvalue(ptr noundef nonnull %6, i32 noundef %.035, i32 noundef 2) #8
  tail call void (ptr, ptr, ...) @appendPQExpBuffer(ptr noundef nonnull %0, ptr noundef nonnull @.str.829, ptr noundef %21) #8
  br label %22

22:                                               ; preds = %18, %20
  %23 = load ptr, ptr %0, align 8
  tail call void @printTableAddFooter(ptr noundef nonnull %3, ptr noundef %23) #8
  %24 = add nuw nsw i32 %.035, 1
  %exitcond.not = icmp eq i32 %24, %8
  br i1 %exitcond.not, label %._crit_edge, label %.lr.ph.split, !llvm.loop !38

._crit_edge:                                      ; preds = %22, %.lr.ph.split.us, %7
  tail call void @PQclear(ptr noundef nonnull %6) #8
  br label %25

25:                                               ; preds = %4, %._crit_edge
  ret i1 %.not
}